; Function Attrs: mustprogress nofree norecurse nosync nounwind willreturn memory(none) uwtable
define internal fastcc i32 @sz_size2index_compute(i64 noundef %size) unnamed_addr #16 {
entry:
  %cmp = icmp ugt i64 %size, 8070450532247928832
  br i1 %cmp, label %return, label %if.end5

if.end5:                                          ; preds = %entry
  %shl = shl nuw i64 %size, 1
  %sub = add i64 %shl, -1
  %0 = tail call i64 @llvm.ctlz.i64(i64 %sub, i1 true), !range !5
  %1 = trunc i64 %0 to i32
  %conv1.i.i.i = shl nuw nsw i32 %1, 2
  %sub8 = xor i32 %conv1.i.i.i, 252
  %shl9 = add nsw i32 %sub8, -20
  %sub15 = sub nsw i64 60, %0
  %sh_prom = and i64 %sub15, 4294967295
  %shl18 = shl nsw i64 -1, %sh_prom
  %sub19 = add nsw i64 %size, -1
  %and = and i64 %shl18, %sub19
  %shr = lshr i64 %and, %sh_prom
  %2 = trunc i64 %shr to i32
  %conv22 = and i32 %2, 3
  %add23 = or disjoint i32 %conv22, %shl9
  br label %return

return:                                           ; preds = %entry, %if.end5
  %retval.0 = phi i32 [ %add23, %if.end5 ], [ 235, %entry ]
  ret i32 %retval.0
}